#include <math.h>
#include <stdio.h>
#include <stdlib.h>
#include <string.h>

int main(int argc, char* argv[])
{   
	int i ,j;
   char num[5];
   for(i=0;i<5;i++)
   
   scanf("%c",&num[i]);
   for(j=4;j>=0;j--)
  	if (num[j]!=0)
	printf("%c",num[j]);
   return 0;
  
}