; ModuleID = '56/1159.c'
source_filename = "56/1159.c"
target datalayout = "e-m:e-p270:32:32-p271:32:32-p272:64:64-i64:64-f80:128-n8:16:32:64-S128"
target triple = "x86_64-pc-linux-gnu"

@.str = private unnamed_addr constant [3 x i8] c"%c\00", align 1

; Function Attrs: noinline nounwind uwtable
define dso_local i32 @main(i32 %0, i8** %1) #0 {
  %3 = alloca i32, align 4
  %4 = alloca i32, align 4
  %5 = alloca i8**, align 8
  %6 = alloca i32, align 4
  %7 = alloca i32, align 4
  %8 = alloca [5 x i8], align 1
  store i32 0, i32* %3, align 4
  store i32 %0, i32* %4, align 4
  store i8** %1, i8*** %5, align 8
  store i32 0, i32* %6, align 4
  br label %9

9:                                                ; preds = %17, %2
  %10 = load i32, i32* %6, align 4
  %11 = icmp slt i32 %10, 5
  br i1 %11, label %12, label %20

12:                                               ; preds = %9
  %13 = load i32, i32* %6, align 4
  %14 = sext i32 %13 to i64
  %15 = getelementptr inbounds [5 x i8], [5 x i8]* %8, i64 0, i64 %14
  %16 = call i32 (i8*, ...) @__isoc99_scanf(i8* getelementptr inbounds ([3 x i8], [3 x i8]* @.str, i64 0, i64 0), i8* %15)
  br label %17

17:                                               ; preds = %12
  %18 = load i32, i32* %6, align 4
  %19 = add nsw i32 %18, 1
  store i32 %19, i32* %6, align 4
  br label %9

20:                                               ; preds = %9
  store i32 4, i32* %7, align 4
  br label %21

21:                                               ; preds = %39, %20
  %22 = load i32, i32* %7, align 4
  %23 = icmp sge i32 %22, 0
  br i1 %23, label %24, label %42

24:                                               ; preds = %21
  %25 = load i32, i32* %7, align 4
  %26 = sext i32 %25 to i64
  %27 = getelementptr inbounds [5 x i8], [5 x i8]* %8, i64 0, i64 %26
  %28 = load i8, i8* %27, align 1
  %29 = sext i8 %28 to i32
  %30 = icmp ne i32 %29, 0
  br i1 %30, label %31, label %38

31:                                               ; preds = %24
  %32 = load i32, i32* %7, align 4
  %33 = sext i32 %32 to i64
  %34 = getelementptr inbounds [5 x i8], [5 x i8]* %8, i64 0, i64 %33
  %35 = load i8, i8* %34, align 1
  %36 = sext i8 %35 to i32
  %37 = call i32 (i8*, ...) @printf(i8* getelementptr inbounds ([3 x i8], [3 x i8]* @.str, i64 0, i64 0), i32 %36)
  br label %38

38:                                               ; preds = %31, %24
  br label %39

39:                                               ; preds = %38
  %40 = load i32, i32* %7, align 4
  %41 = add nsw i32 %40, -1
  store i32 %41, i32* %7, align 4
  br label %21

42:                                               ; preds = %21
  ret i32 0
}

declare dso_local i32 @__isoc99_scanf(i8*, ...) #1

declare dso_local i32 @printf(i8*, ...) #1


!llvm.module.flags = !{!0}
!llvm.ident = !{!1}

!0 = !{i32 1, !"wchar_size", i32 4}
!1 = !{!"clang version 10.0.0-4ubuntu1 "}
