; ModuleID = 'source-C-CXX/55/1159.c'
source_filename = "source-C-CXX/55/1159.c"
target datalayout = "e-m:e-p270:32:32-p271:32:32-p272:64:64-i64:64-f80:128-n8:16:32:64-S128"
target triple = "x86_64-pc-linux-gnu"

@.str = private unnamed_addr constant [3 x i8] c"%c\00", align 1

; Function Attrs: nofree nounwind sspstrong uwtable
define dso_local i32 @main(i32 %0, i8** nocapture readnone %1) local_unnamed_addr #0 {
  %3 = alloca [5 x i8], align 1
  %4 = getelementptr inbounds [5 x i8], [5 x i8]* %3, i64 0, i64 0
  call void @llvm.lifetime.start.p0i8(i64 5, i8* nonnull %4) #4
  %5 = call i32 (i8*, ...) @__isoc99_scanf(i8* getelementptr inbounds ([3 x i8], [3 x i8]* @.str, i64 0, i64 0), i8* nonnull %4)
  %6 = getelementptr inbounds [5 x i8], [5 x i8]* %3, i64 0, i64 1
  %7 = call i32 (i8*, ...) @__isoc99_scanf(i8* getelementptr inbounds ([3 x i8], [3 x i8]* @.str, i64 0, i64 0), i8* nonnull %6)
  %8 = getelementptr inbounds [5 x i8], [5 x i8]* %3, i64 0, i64 2
  %9 = call i32 (i8*, ...) @__isoc99_scanf(i8* getelementptr inbounds ([3 x i8], [3 x i8]* @.str, i64 0, i64 0), i8* nonnull %8)
  %10 = getelementptr inbounds [5 x i8], [5 x i8]* %3, i64 0, i64 3
  %11 = call i32 (i8*, ...) @__isoc99_scanf(i8* getelementptr inbounds ([3 x i8], [3 x i8]* @.str, i64 0, i64 0), i8* nonnull %10)
  %12 = getelementptr inbounds [5 x i8], [5 x i8]* %3, i64 0, i64 4
  %13 = call i32 (i8*, ...) @__isoc99_scanf(i8* getelementptr inbounds ([3 x i8], [3 x i8]* @.str, i64 0, i64 0), i8* nonnull %12)
  %14 = load i8, i8* %12, align 1, !tbaa !5
  %15 = icmp eq i8 %14, 0
  br i1 %15, label %19, label %16

16:                                               ; preds = %2
  %17 = sext i8 %14 to i32
  %18 = call i32 @putchar(i32 %17)
  br label %19

19:                                               ; preds = %2, %16
  %20 = load i8, i8* %10, align 1, !tbaa !5
  %21 = icmp eq i8 %20, 0
  br i1 %21, label %25, label %22

22:                                               ; preds = %19
  %23 = sext i8 %20 to i32
  %24 = call i32 @putchar(i32 %23)
  br label %25

25:                                               ; preds = %22, %19
  %26 = load i8, i8* %8, align 1, !tbaa !5
  %27 = icmp eq i8 %26, 0
  br i1 %27, label %31, label %28

28:                                               ; preds = %25
  %29 = sext i8 %26 to i32
  %30 = call i32 @putchar(i32 %29)
  br label %31

31:                                               ; preds = %28, %25
  %32 = load i8, i8* %6, align 1, !tbaa !5
  %33 = icmp eq i8 %32, 0
  br i1 %33, label %37, label %34

34:                                               ; preds = %31
  %35 = sext i8 %32 to i32
  %36 = call i32 @putchar(i32 %35)
  br label %37

37:                                               ; preds = %34, %31
  %38 = load i8, i8* %4, align 1, !tbaa !5
  %39 = icmp eq i8 %38, 0
  br i1 %39, label %43, label %40

40:                                               ; preds = %37
  %41 = sext i8 %38 to i32
  %42 = call i32 @putchar(i32 %41)
  br label %43

43:                                               ; preds = %40, %37
  call void @llvm.lifetime.end.p0i8(i64 5, i8* nonnull %4) #4
  ret i32 0
}

; Function Attrs: argmemonly mustprogress nofree nosync nounwind willreturn
declare void @llvm.lifetime.start.p0i8(i64 immarg, i8* nocapture) #1

; Function Attrs: nofree nounwind
declare noundef i32 @__isoc99_scanf(i8* nocapture noundef readonly, ...) local_unnamed_addr #2

; Function Attrs: argmemonly mustprogress nofree nosync nounwind willreturn
declare void @llvm.lifetime.end.p0i8(i64 immarg, i8* nocapture) #1

; Function Attrs: nofree nounwind
declare noundef i32 @putchar(i32 noundef) local_unnamed_addr #3


!llvm.module.flags = !{!0, !1, !2, !3}
!llvm.ident = !{!4}

!0 = !{i32 1, !"wchar_size", i32 4}
!1 = !{i32 7, !"PIC Level", i32 2}
!2 = !{i32 7, !"PIE Level", i32 2}
!3 = !{i32 7, !"uwtable", i32 1}
!4 = !{!"clang version 13.0.0"}
!5 = !{!6, !6, i64 0}
!6 = !{!"omnipotent char", !7, i64 0}
!7 = !{!"Simple C/C++ TBAA"}
